target datalayout = "e-m:e-p270:32:32-p271:32:32-p272:64:64-i64:64-i128:128-f80:128-n8:16:32:64-S128"
target triple = "x86_64-pc-linux-gnu"

%struct.QemuMutex = type { %union.pthread_mutex_t, i8 }
%union.pthread_mutex_t = type { %struct.__pthread_mutex_s }
%struct.__pthread_mutex_s = type { i32, i32, i32, i32, i32, i16, i16, %struct.__pthread_internal_list }
%struct.__pthread_internal_list = type { ptr, ptr }
%struct.BlockJob = type { %struct.Job, i32, i64, %struct.RateLimit, ptr, %struct.Notifier, %struct.Notifier, %struct.Notifier, %struct.Notifier, %struct.Notifier, ptr }
%struct.Job = type { ptr, ptr, ptr, i8, i8, ptr, ptr, %struct.ProgressMeter, ptr, i32, i32, %struct.QEMUTimer, i32, i8, i8, i8, i8, i8, i8, i32, ptr, %struct.NotifierList, %struct.NotifierList, %struct.NotifierList, %struct.NotifierList, %struct.NotifierList, %struct.anon.0, ptr, %struct.anon.1 }
%struct.ProgressMeter = type { i64, i64, %struct.QemuMutex }
%struct.QEMUTimer = type { i64, ptr, ptr, ptr, ptr, i32, i32 }
%struct.NotifierList = type { %struct.anon }
%struct.anon = type { ptr }
%struct.anon.0 = type { ptr, ptr }
%struct.anon.1 = type { ptr, ptr }
%struct.RateLimit = type { %struct.QemuMutex, i64, i64, i64, i64, i64 }
%struct.Notifier = type { ptr, %struct.anon.2 }
%struct.anon.2 = type { ptr, ptr }

@.str = private unnamed_addr constant [22 x i8] c"qemu_in_main_thread()\00", align 1
@.str.1 = private unnamed_addr constant [19 x i8] c"../qemu/blockjob.c\00", align 1
@__PRETTY_FUNCTION__.block_job_iostatus_reset_locked = private unnamed_addr constant [49 x i8] c"void block_job_iostatus_reset_locked(BlockJob *)\00", align 1
@.str.12 = private unnamed_addr constant [49 x i8] c"job->job.user_paused && job->job.pause_count > 0\00", align 1

; Function Attrs: nounwind sspstrong uwtable
define dso_local void @block_job_iostatus_reset_locked(ptr noundef %0) #0 {
  %2 = alloca ptr, align 8
  store ptr %0, ptr %2, align 8
  br label %3

3:                                                ; preds = %1
  %4 = call zeroext i1 @qemu_in_main_thread()
  br i1 %4, label %5, label %6

5:                                                ; preds = %3
  br label %7

6:                                                ; preds = %3
  call void @__assert_fail(ptr noundef @.str, ptr noundef @.str.1, i32 noundef 557, ptr noundef @__PRETTY_FUNCTION__.block_job_iostatus_reset_locked) #13
  unreachable

7:                                                ; preds = %5
  br label %8

8:                                                ; preds = %7
  %9 = load ptr, ptr %2, align 8
  %10 = getelementptr inbounds nuw %struct.BlockJob, ptr %9, i32 0, i32 1
  %11 = load i32, ptr %10, align 8
  %12 = icmp eq i32 %11, 0
  br i1 %12, label %13, label %14

13:                                               ; preds = %8
  br label %31

14:                                               ; preds = %8
  %15 = load ptr, ptr %2, align 8
  %16 = getelementptr inbounds nuw %struct.BlockJob, ptr %15, i32 0, i32 0
  %17 = getelementptr inbounds nuw %struct.Job, ptr %16, i32 0, i32 15
  %18 = load i8, ptr %17, align 2, !range !11, !noundef !12
  %19 = trunc i8 %18 to i1
  br i1 %19, label %20, label %27

20:                                               ; preds = %14
  %21 = load ptr, ptr %2, align 8
  %22 = getelementptr inbounds nuw %struct.BlockJob, ptr %21, i32 0, i32 0
  %23 = getelementptr inbounds nuw %struct.Job, ptr %22, i32 0, i32 12
  %24 = load i32, ptr %23, align 8
  %25 = icmp sgt i32 %24, 0
  br i1 %25, label %26, label %27

26:                                               ; preds = %20
  br label %28

27:                                               ; preds = %20, %14
  call void @__assert_fail(ptr noundef @.str.12, ptr noundef @.str.1, i32 noundef 561, ptr noundef @__PRETTY_FUNCTION__.block_job_iostatus_reset_locked) #13
  unreachable

28:                                               ; preds = %26
  %29 = load ptr, ptr %2, align 8
  %30 = getelementptr inbounds nuw %struct.BlockJob, ptr %29, i32 0, i32 1
  store i32 0, ptr %30, align 8
  br label %31

31:                                               ; preds = %28, %13
  ret void
}