; Function Attrs: nounwind sspstrong uwtable
define dso_local void @block_job_iostatus_reset_locked(ptr noundef captures(none) %0) local_unnamed_addr #0 {
  %2 = tail call zeroext i1 @qemu_in_main_thread() #8
  br i1 %2, label %4, label %3

3:                                                ; preds = %1
  tail call void @__assert_fail(ptr noundef nonnull @.str, ptr noundef nonnull @.str.1, i32 noundef 557, ptr noundef nonnull @__PRETTY_FUNCTION__.block_job_iostatus_reset_locked) #9
  unreachable

4:                                                ; preds = %1
  %5 = getelementptr inbounds nuw i8, ptr %0, i64 280
  %6 = load i32, ptr %5, align 8
  %7 = icmp eq i32 %6, 0
  br i1 %7, label %18, label %8

8:                                                ; preds = %4
  %9 = getelementptr inbounds nuw i8, ptr %0, i64 182
  %10 = load i8, ptr %9, align 2, !range !10, !noundef !11
  %11 = trunc nuw i8 %10 to i1
  br i1 %11, label %12, label %16

12:                                               ; preds = %8
  %13 = getelementptr inbounds nuw i8, ptr %0, i64 176
  %14 = load i32, ptr %13, align 8
  %15 = icmp sgt i32 %14, 0
  br i1 %15, label %17, label %16

16:                                               ; preds = %12, %8
  tail call void @__assert_fail(ptr noundef nonnull @.str.12, ptr noundef nonnull @.str.1, i32 noundef 561, ptr noundef nonnull @__PRETTY_FUNCTION__.block_job_iostatus_reset_locked) #9
  unreachable

17:                                               ; preds = %12
  store i32 0, ptr %5, align 8
  br label %18

18:                                               ; preds = %4, %17
  ret void
}